
_forktest:     file format elf32-i386


Disassembly of section .text:

00000000 <main>:
  printf(1, "fork test OK\n");
}

int
main(void)
{
   0:	f3 0f 1e fb          	endbr32 
   4:	8d 4c 24 04          	lea    0x4(%esp),%ecx
   8:	83 e4 f0             	and    $0xfffffff0,%esp
   b:	ff 71 fc             	pushl  -0x4(%ecx)
   e:	55                   	push   %ebp
   f:	89 e5                	mov    %esp,%ebp
  11:	51                   	push   %ecx
  12:	83 ec 04             	sub    $0x4,%esp
  forktest();
  15:	e8 46 00 00 00       	call   60 <forktest>
  exit(0);
  1a:	83 ec 0c             	sub    $0xc,%esp
  1d:	6a 00                	push   $0x0
  1f:	e8 bf 03 00 00       	call   3e3 <exit>
  24:	66 90                	xchg   %ax,%ax
  26:	66 90                	xchg   %ax,%ax
  28:	66 90                	xchg   %ax,%ax
  2a:	66 90                	xchg   %ax,%ax
  2c:	66 90                	xchg   %ax,%ax
  2e:	66 90                	xchg   %ax,%ax

00000030 <printf>:
{
  30:	f3 0f 1e fb          	endbr32 
  34:	55                   	push   %ebp
  35:	89 e5                	mov    %esp,%ebp
  37:	53                   	push   %ebx
  38:	83 ec 10             	sub    $0x10,%esp
  3b:	8b 5d 0c             	mov    0xc(%ebp),%ebx
  write(fd, s, strlen(s));
  3e:	53                   	push   %ebx
  3f:	e8 bc 01 00 00       	call   200 <strlen>
  44:	83 c4 0c             	add    $0xc,%esp
  47:	50                   	push   %eax
  48:	53                   	push   %ebx
  49:	ff 75 08             	pushl  0x8(%ebp)
  4c:	e8 b2 03 00 00       	call   403 <write>
}
  51:	8b 5d fc             	mov    -0x4(%ebp),%ebx
  54:	83 c4 10             	add    $0x10,%esp
  57:	c9                   	leave  
  58:	c3                   	ret    
  59:	8d b4 26 00 00 00 00 	lea    0x0(%esi,%eiz,1),%esi

00000060 <forktest>:
{
  60:	f3 0f 1e fb          	endbr32 
  64:	55                   	push   %ebp
  65:	89 e5                	mov    %esp,%ebp
  67:	53                   	push   %ebx
  for(n=0; n<N; n++){
  68:	31 db                	xor    %ebx,%ebx
{
  6a:	83 ec 10             	sub    $0x10,%esp
  write(fd, s, strlen(s));
  6d:	68 8c 04 00 00       	push   $0x48c
  72:	e8 89 01 00 00       	call   200 <strlen>
  77:	83 c4 0c             	add    $0xc,%esp
  7a:	50                   	push   %eax
  7b:	68 8c 04 00 00       	push   $0x48c
  80:	6a 01                	push   $0x1
  82:	e8 7c 03 00 00       	call   403 <write>
  87:	83 c4 10             	add    $0x10,%esp
  8a:	eb 15                	jmp    a1 <forktest+0x41>
  8c:	8d 74 26 00          	lea    0x0(%esi,%eiz,1),%esi
    if(pid == 0)
  90:	74 68                	je     fa <forktest+0x9a>
  for(n=0; n<N; n++){
  92:	83 c3 01             	add    $0x1,%ebx
  95:	81 fb e8 03 00 00    	cmp    $0x3e8,%ebx
  9b:	0f 84 b5 00 00 00    	je     156 <forktest+0xf6>
    pid = fork();
  a1:	e8 35 03 00 00       	call   3db <fork>
    if(pid < 0)
  a6:	85 c0                	test   %eax,%eax
  a8:	79 e6                	jns    90 <forktest+0x30>
  for(; n > 0; n--){
  aa:	85 db                	test   %ebx,%ebx
  ac:	74 18                	je     c6 <forktest+0x66>
  ae:	66 90                	xchg   %ax,%ax
    if(wait(null) < 0){
  b0:	83 ec 0c             	sub    $0xc,%esp
  b3:	6a 00                	push   $0x0
  b5:	e8 31 03 00 00       	call   3eb <wait>
  ba:	83 c4 10             	add    $0x10,%esp
  bd:	85 c0                	test   %eax,%eax
  bf:	78 43                	js     104 <forktest+0xa4>
  for(; n > 0; n--){
  c1:	83 eb 01             	sub    $0x1,%ebx
  c4:	75 ea                	jne    b0 <forktest+0x50>
  if(wait(null) != -1){
  c6:	83 ec 0c             	sub    $0xc,%esp
  c9:	6a 00                	push   $0x0
  cb:	e8 1b 03 00 00       	call   3eb <wait>
  d0:	83 c4 10             	add    $0x10,%esp
  d3:	83 f8 ff             	cmp    $0xffffffff,%eax
  d6:	75 55                	jne    12d <forktest+0xcd>
  write(fd, s, strlen(s));
  d8:	83 ec 0c             	sub    $0xc,%esp
  db:	68 be 04 00 00       	push   $0x4be
  e0:	e8 1b 01 00 00       	call   200 <strlen>
  e5:	83 c4 0c             	add    $0xc,%esp
  e8:	50                   	push   %eax
  e9:	68 be 04 00 00       	push   $0x4be
  ee:	6a 01                	push   $0x1
  f0:	e8 0e 03 00 00       	call   403 <write>
}
  f5:	8b 5d fc             	mov    -0x4(%ebp),%ebx
  f8:	c9                   	leave  
  f9:	c3                   	ret    
      exit(0);
  fa:	83 ec 0c             	sub    $0xc,%esp
  fd:	6a 00                	push   $0x0
  ff:	e8 df 02 00 00       	call   3e3 <exit>
  write(fd, s, strlen(s));
 104:	83 ec 0c             	sub    $0xc,%esp
 107:	68 97 04 00 00       	push   $0x497
 10c:	e8 ef 00 00 00       	call   200 <strlen>
 111:	83 c4 0c             	add    $0xc,%esp
 114:	50                   	push   %eax
 115:	68 97 04 00 00       	push   $0x497
 11a:	6a 01                	push   $0x1
 11c:	e8 e2 02 00 00       	call   403 <write>
      exit(0);
 121:	c7 04 24 00 00 00 00 	movl   $0x0,(%esp)
 128:	e8 b6 02 00 00       	call   3e3 <exit>
  write(fd, s, strlen(s));
 12d:	83 ec 0c             	sub    $0xc,%esp
 130:	68 ab 04 00 00       	push   $0x4ab
 135:	e8 c6 00 00 00       	call   200 <strlen>
 13a:	83 c4 0c             	add    $0xc,%esp
 13d:	50                   	push   %eax
 13e:	68 ab 04 00 00       	push   $0x4ab
 143:	6a 01                	push   $0x1
 145:	e8 b9 02 00 00       	call   403 <write>
    exit(0);
 14a:	c7 04 24 00 00 00 00 	movl   $0x0,(%esp)
 151:	e8 8d 02 00 00       	call   3e3 <exit>
  write(fd, s, strlen(s));
 156:	83 ec 0c             	sub    $0xc,%esp
 159:	68 cc 04 00 00       	push   $0x4cc
 15e:	e8 9d 00 00 00       	call   200 <strlen>
 163:	83 c4 0c             	add    $0xc,%esp
 166:	50                   	push   %eax
 167:	68 cc 04 00 00       	push   $0x4cc
 16c:	6a 01                	push   $0x1
 16e:	e8 90 02 00 00       	call   403 <write>
    exit(0);
 173:	c7 04 24 00 00 00 00 	movl   $0x0,(%esp)
 17a:	e8 64 02 00 00       	call   3e3 <exit>
 17f:	90                   	nop

00000180 <strcpy>:
#include "user.h"
#include "x86.h"

char*
strcpy(char *s, const char *t)
{
 180:	f3 0f 1e fb          	endbr32 
 184:	55                   	push   %ebp
  char *os;

  os = s;
  while((*s++ = *t++) != 0)
 185:	31 c0                	xor    %eax,%eax
{
 187:	89 e5                	mov    %esp,%ebp
 189:	53                   	push   %ebx
 18a:	8b 4d 08             	mov    0x8(%ebp),%ecx
 18d:	8b 5d 0c             	mov    0xc(%ebp),%ebx
  while((*s++ = *t++) != 0)
 190:	0f b6 14 03          	movzbl (%ebx,%eax,1),%edx
 194:	88 14 01             	mov    %dl,(%ecx,%eax,1)
 197:	83 c0 01             	add    $0x1,%eax
 19a:	84 d2                	test   %dl,%dl
 19c:	75 f2                	jne    190 <strcpy+0x10>
    ;
  return os;
}
 19e:	89 c8                	mov    %ecx,%eax
 1a0:	5b                   	pop    %ebx
 1a1:	5d                   	pop    %ebp
 1a2:	c3                   	ret    
 1a3:	8d b4 26 00 00 00 00 	lea    0x0(%esi,%eiz,1),%esi
 1aa:	8d b6 00 00 00 00    	lea    0x0(%esi),%esi

000001b0 <strcmp>:

int
strcmp(const char *p, const char *q)
{
 1b0:	f3 0f 1e fb          	endbr32 
 1b4:	55                   	push   %ebp
 1b5:	89 e5                	mov    %esp,%ebp
 1b7:	53                   	push   %ebx
 1b8:	8b 4d 08             	mov    0x8(%ebp),%ecx
 1bb:	8b 55 0c             	mov    0xc(%ebp),%edx
  while(*p && *p == *q)
 1be:	0f b6 01             	movzbl (%ecx),%eax
 1c1:	0f b6 1a             	movzbl (%edx),%ebx
 1c4:	84 c0                	test   %al,%al
 1c6:	75 19                	jne    1e1 <strcmp+0x31>
 1c8:	eb 26                	jmp    1f0 <strcmp+0x40>
 1ca:	8d b6 00 00 00 00    	lea    0x0(%esi),%esi
 1d0:	0f b6 41 01          	movzbl 0x1(%ecx),%eax
    p++, q++;
 1d4:	83 c1 01             	add    $0x1,%ecx
 1d7:	83 c2 01             	add    $0x1,%edx
  while(*p && *p == *q)
 1da:	0f b6 1a             	movzbl (%edx),%ebx
 1dd:	84 c0                	test   %al,%al
 1df:	74 0f                	je     1f0 <strcmp+0x40>
 1e1:	38 d8                	cmp    %bl,%al
 1e3:	74 eb                	je     1d0 <strcmp+0x20>
  return (uchar)*p - (uchar)*q;
 1e5:	29 d8                	sub    %ebx,%eax
}
 1e7:	5b                   	pop    %ebx
 1e8:	5d                   	pop    %ebp
 1e9:	c3                   	ret    
 1ea:	8d b6 00 00 00 00    	lea    0x0(%esi),%esi
 1f0:	31 c0                	xor    %eax,%eax
  return (uchar)*p - (uchar)*q;
 1f2:	29 d8                	sub    %ebx,%eax
}
 1f4:	5b                   	pop    %ebx
 1f5:	5d                   	pop    %ebp
 1f6:	c3                   	ret    
 1f7:	8d b4 26 00 00 00 00 	lea    0x0(%esi,%eiz,1),%esi
 1fe:	66 90                	xchg   %ax,%ax

00000200 <strlen>:

uint
strlen(const char *s)
{
 200:	f3 0f 1e fb          	endbr32 
 204:	55                   	push   %ebp
 205:	89 e5                	mov    %esp,%ebp
 207:	8b 55 08             	mov    0x8(%ebp),%edx
  int n;

  for(n = 0; s[n]; n++)
 20a:	80 3a 00             	cmpb   $0x0,(%edx)
 20d:	74 21                	je     230 <strlen+0x30>
 20f:	31 c0                	xor    %eax,%eax
 211:	8d b4 26 00 00 00 00 	lea    0x0(%esi,%eiz,1),%esi
 218:	83 c0 01             	add    $0x1,%eax
 21b:	80 3c 02 00          	cmpb   $0x0,(%edx,%eax,1)
 21f:	89 c1                	mov    %eax,%ecx
 221:	75 f5                	jne    218 <strlen+0x18>
    ;
  return n;
}
 223:	89 c8                	mov    %ecx,%eax
 225:	5d                   	pop    %ebp
 226:	c3                   	ret    
 227:	8d b4 26 00 00 00 00 	lea    0x0(%esi,%eiz,1),%esi
 22e:	66 90                	xchg   %ax,%ax
  for(n = 0; s[n]; n++)
 230:	31 c9                	xor    %ecx,%ecx
}
 232:	5d                   	pop    %ebp
 233:	89 c8                	mov    %ecx,%eax
 235:	c3                   	ret    
 236:	8d b4 26 00 00 00 00 	lea    0x0(%esi,%eiz,1),%esi
 23d:	8d 76 00             	lea    0x0(%esi),%esi

00000240 <memset>:

void*
memset(void *dst, int c, uint n)
{
 240:	f3 0f 1e fb          	endbr32 
 244:	55                   	push   %ebp
 245:	89 e5                	mov    %esp,%ebp
 247:	57                   	push   %edi
 248:	8b 55 08             	mov    0x8(%ebp),%edx
}

static inline void
stosb(void *addr, int data, int cnt)
{
  asm volatile("cld; rep stosb" :
 24b:	8b 4d 10             	mov    0x10(%ebp),%ecx
 24e:	8b 45 0c             	mov    0xc(%ebp),%eax
 251:	89 d7                	mov    %edx,%edi
 253:	fc                   	cld    
 254:	f3 aa                	rep stos %al,%es:(%edi)
  stosb(dst, c, n);
  return dst;
}
 256:	89 d0                	mov    %edx,%eax
 258:	5f                   	pop    %edi
 259:	5d                   	pop    %ebp
 25a:	c3                   	ret    
 25b:	8d 74 26 00          	lea    0x0(%esi,%eiz,1),%esi
 25f:	90                   	nop

00000260 <strchr>:

char*
strchr(const char *s, char c)
{
 260:	f3 0f 1e fb          	endbr32 
 264:	55                   	push   %ebp
 265:	89 e5                	mov    %esp,%ebp
 267:	8b 45 08             	mov    0x8(%ebp),%eax
 26a:	0f b6 4d 0c          	movzbl 0xc(%ebp),%ecx
  for(; *s; s++)
 26e:	0f b6 10             	movzbl (%eax),%edx
 271:	84 d2                	test   %dl,%dl
 273:	75 16                	jne    28b <strchr+0x2b>
 275:	eb 21                	jmp    298 <strchr+0x38>
 277:	8d b4 26 00 00 00 00 	lea    0x0(%esi,%eiz,1),%esi
 27e:	66 90                	xchg   %ax,%ax
 280:	0f b6 50 01          	movzbl 0x1(%eax),%edx
 284:	83 c0 01             	add    $0x1,%eax
 287:	84 d2                	test   %dl,%dl
 289:	74 0d                	je     298 <strchr+0x38>
    if(*s == c)
 28b:	38 d1                	cmp    %dl,%cl
 28d:	75 f1                	jne    280 <strchr+0x20>
      return (char*)s;
  return 0;
}
 28f:	5d                   	pop    %ebp
 290:	c3                   	ret    
 291:	8d b4 26 00 00 00 00 	lea    0x0(%esi,%eiz,1),%esi
  return 0;
 298:	31 c0                	xor    %eax,%eax
}
 29a:	5d                   	pop    %ebp
 29b:	c3                   	ret    
 29c:	8d 74 26 00          	lea    0x0(%esi,%eiz,1),%esi

000002a0 <gets>:

char*
gets(char *buf, int max)
{
 2a0:	f3 0f 1e fb          	endbr32 
 2a4:	55                   	push   %ebp
 2a5:	89 e5                	mov    %esp,%ebp
 2a7:	57                   	push   %edi
 2a8:	56                   	push   %esi
  int i, cc;
  char c;

  for(i=0; i+1 < max; ){
 2a9:	31 f6                	xor    %esi,%esi
{
 2ab:	53                   	push   %ebx
 2ac:	89 f3                	mov    %esi,%ebx
 2ae:	83 ec 1c             	sub    $0x1c,%esp
 2b1:	8b 7d 08             	mov    0x8(%ebp),%edi
  for(i=0; i+1 < max; ){
 2b4:	eb 33                	jmp    2e9 <gets+0x49>
 2b6:	8d b4 26 00 00 00 00 	lea    0x0(%esi,%eiz,1),%esi
 2bd:	8d 76 00             	lea    0x0(%esi),%esi
    cc = read(0, &c, 1);
 2c0:	83 ec 04             	sub    $0x4,%esp
 2c3:	8d 45 e7             	lea    -0x19(%ebp),%eax
 2c6:	6a 01                	push   $0x1
 2c8:	50                   	push   %eax
 2c9:	6a 00                	push   $0x0
 2cb:	e8 2b 01 00 00       	call   3fb <read>
    if(cc < 1)
 2d0:	83 c4 10             	add    $0x10,%esp
 2d3:	85 c0                	test   %eax,%eax
 2d5:	7e 1c                	jle    2f3 <gets+0x53>
      break;
    buf[i++] = c;
 2d7:	0f b6 45 e7          	movzbl -0x19(%ebp),%eax
 2db:	83 c7 01             	add    $0x1,%edi
 2de:	88 47 ff             	mov    %al,-0x1(%edi)
    if(c == '\n' || c == '\r')
 2e1:	3c 0a                	cmp    $0xa,%al
 2e3:	74 23                	je     308 <gets+0x68>
 2e5:	3c 0d                	cmp    $0xd,%al
 2e7:	74 1f                	je     308 <gets+0x68>
  for(i=0; i+1 < max; ){
 2e9:	83 c3 01             	add    $0x1,%ebx
 2ec:	89 fe                	mov    %edi,%esi
 2ee:	3b 5d 0c             	cmp    0xc(%ebp),%ebx
 2f1:	7c cd                	jl     2c0 <gets+0x20>
 2f3:	89 f3                	mov    %esi,%ebx
      break;
  }
  buf[i] = '\0';
  return buf;
}
 2f5:	8b 45 08             	mov    0x8(%ebp),%eax
  buf[i] = '\0';
 2f8:	c6 03 00             	movb   $0x0,(%ebx)
}
 2fb:	8d 65 f4             	lea    -0xc(%ebp),%esp
 2fe:	5b                   	pop    %ebx
 2ff:	5e                   	pop    %esi
 300:	5f                   	pop    %edi
 301:	5d                   	pop    %ebp
 302:	c3                   	ret    
 303:	8d 74 26 00          	lea    0x0(%esi,%eiz,1),%esi
 307:	90                   	nop
 308:	8b 75 08             	mov    0x8(%ebp),%esi
 30b:	8b 45 08             	mov    0x8(%ebp),%eax
 30e:	01 de                	add    %ebx,%esi
 310:	89 f3                	mov    %esi,%ebx
  buf[i] = '\0';
 312:	c6 03 00             	movb   $0x0,(%ebx)
}
 315:	8d 65 f4             	lea    -0xc(%ebp),%esp
 318:	5b                   	pop    %ebx
 319:	5e                   	pop    %esi
 31a:	5f                   	pop    %edi
 31b:	5d                   	pop    %ebp
 31c:	c3                   	ret    
 31d:	8d 76 00             	lea    0x0(%esi),%esi

00000320 <stat>:

int
stat(const char *n, struct stat *st)
{
 320:	f3 0f 1e fb          	endbr32 
 324:	55                   	push   %ebp
 325:	89 e5                	mov    %esp,%ebp
 327:	56                   	push   %esi
 328:	53                   	push   %ebx
  int fd;
  int r;

  fd = open(n, O_RDONLY);
 329:	83 ec 08             	sub    $0x8,%esp
 32c:	6a 00                	push   $0x0
 32e:	ff 75 08             	pushl  0x8(%ebp)
 331:	e8 ed 00 00 00       	call   423 <open>
  if(fd < 0)
 336:	83 c4 10             	add    $0x10,%esp
 339:	85 c0                	test   %eax,%eax
 33b:	78 2b                	js     368 <stat+0x48>
    return -1;
  r = fstat(fd, st);
 33d:	83 ec 08             	sub    $0x8,%esp
 340:	ff 75 0c             	pushl  0xc(%ebp)
 343:	89 c3                	mov    %eax,%ebx
 345:	50                   	push   %eax
 346:	e8 f0 00 00 00       	call   43b <fstat>
  close(fd);
 34b:	89 1c 24             	mov    %ebx,(%esp)
  r = fstat(fd, st);
 34e:	89 c6                	mov    %eax,%esi
  close(fd);
 350:	e8 b6 00 00 00       	call   40b <close>
  return r;
 355:	83 c4 10             	add    $0x10,%esp
}
 358:	8d 65 f8             	lea    -0x8(%ebp),%esp
 35b:	89 f0                	mov    %esi,%eax
 35d:	5b                   	pop    %ebx
 35e:	5e                   	pop    %esi
 35f:	5d                   	pop    %ebp
 360:	c3                   	ret    
 361:	8d b4 26 00 00 00 00 	lea    0x0(%esi,%eiz,1),%esi
    return -1;
 368:	be ff ff ff ff       	mov    $0xffffffff,%esi
 36d:	eb e9                	jmp    358 <stat+0x38>
 36f:	90                   	nop

00000370 <atoi>:

int
atoi(const char *s)
{
 370:	f3 0f 1e fb          	endbr32 
 374:	55                   	push   %ebp
 375:	89 e5                	mov    %esp,%ebp
 377:	53                   	push   %ebx
 378:	8b 55 08             	mov    0x8(%ebp),%edx
  int n;

  n = 0;
  while('0' <= *s && *s <= '9')
 37b:	0f be 02             	movsbl (%edx),%eax
 37e:	8d 48 d0             	lea    -0x30(%eax),%ecx
 381:	80 f9 09             	cmp    $0x9,%cl
  n = 0;
 384:	b9 00 00 00 00       	mov    $0x0,%ecx
  while('0' <= *s && *s <= '9')
 389:	77 1a                	ja     3a5 <atoi+0x35>
 38b:	8d 74 26 00          	lea    0x0(%esi,%eiz,1),%esi
 38f:	90                   	nop
    n = n*10 + *s++ - '0';
 390:	83 c2 01             	add    $0x1,%edx
 393:	8d 0c 89             	lea    (%ecx,%ecx,4),%ecx
 396:	8d 4c 48 d0          	lea    -0x30(%eax,%ecx,2),%ecx
  while('0' <= *s && *s <= '9')
 39a:	0f be 02             	movsbl (%edx),%eax
 39d:	8d 58 d0             	lea    -0x30(%eax),%ebx
 3a0:	80 fb 09             	cmp    $0x9,%bl
 3a3:	76 eb                	jbe    390 <atoi+0x20>
  return n;
}
 3a5:	89 c8                	mov    %ecx,%eax
 3a7:	5b                   	pop    %ebx
 3a8:	5d                   	pop    %ebp
 3a9:	c3                   	ret    
 3aa:	8d b6 00 00 00 00    	lea    0x0(%esi),%esi

000003b0 <memmove>:

void*
memmove(void *vdst, const void *vsrc, int n)
{
 3b0:	f3 0f 1e fb          	endbr32 
 3b4:	55                   	push   %ebp
 3b5:	89 e5                	mov    %esp,%ebp
 3b7:	57                   	push   %edi
 3b8:	8b 45 10             	mov    0x10(%ebp),%eax
 3bb:	8b 55 08             	mov    0x8(%ebp),%edx
 3be:	56                   	push   %esi
 3bf:	8b 75 0c             	mov    0xc(%ebp),%esi
  char *dst;
  const char *src;

  dst = vdst;
  src = vsrc;
  while(n-- > 0)
 3c2:	85 c0                	test   %eax,%eax
 3c4:	7e 0f                	jle    3d5 <memmove+0x25>
 3c6:	01 d0                	add    %edx,%eax
  dst = vdst;
 3c8:	89 d7                	mov    %edx,%edi
 3ca:	8d b6 00 00 00 00    	lea    0x0(%esi),%esi
    *dst++ = *src++;
 3d0:	a4                   	movsb  %ds:(%esi),%es:(%edi)
  while(n-- > 0)
 3d1:	39 f8                	cmp    %edi,%eax
 3d3:	75 fb                	jne    3d0 <memmove+0x20>
  return vdst;
}
 3d5:	5e                   	pop    %esi
 3d6:	89 d0                	mov    %edx,%eax
 3d8:	5f                   	pop    %edi
 3d9:	5d                   	pop    %ebp
 3da:	c3                   	ret    

000003db <fork>:
  name: \
    movl $SYS_ ## name, %eax; \
    int $T_SYSCALL; \
    ret

SYSCALL(fork)
 3db:	b8 01 00 00 00       	mov    $0x1,%eax
 3e0:	cd 40                	int    $0x40
 3e2:	c3                   	ret    

000003e3 <exit>:
SYSCALL(exit)
 3e3:	b8 02 00 00 00       	mov    $0x2,%eax
 3e8:	cd 40                	int    $0x40
 3ea:	c3                   	ret    

000003eb <wait>:
SYSCALL(wait)
 3eb:	b8 03 00 00 00       	mov    $0x3,%eax
 3f0:	cd 40                	int    $0x40
 3f2:	c3                   	ret    

000003f3 <pipe>:
SYSCALL(pipe)
 3f3:	b8 04 00 00 00       	mov    $0x4,%eax
 3f8:	cd 40                	int    $0x40
 3fa:	c3                   	ret    

000003fb <read>:
SYSCALL(read)
 3fb:	b8 05 00 00 00       	mov    $0x5,%eax
 400:	cd 40                	int    $0x40
 402:	c3                   	ret    

00000403 <write>:
SYSCALL(write)
 403:	b8 10 00 00 00       	mov    $0x10,%eax
 408:	cd 40                	int    $0x40
 40a:	c3                   	ret    

0000040b <close>:
SYSCALL(close)
 40b:	b8 15 00 00 00       	mov    $0x15,%eax
 410:	cd 40                	int    $0x40
 412:	c3                   	ret    

00000413 <kill>:
SYSCALL(kill)
 413:	b8 06 00 00 00       	mov    $0x6,%eax
 418:	cd 40                	int    $0x40
 41a:	c3                   	ret    

0000041b <exec>:
SYSCALL(exec)
 41b:	b8 07 00 00 00       	mov    $0x7,%eax
 420:	cd 40                	int    $0x40
 422:	c3                   	ret    

00000423 <open>:
SYSCALL(open)
 423:	b8 0f 00 00 00       	mov    $0xf,%eax
 428:	cd 40                	int    $0x40
 42a:	c3                   	ret    

0000042b <mknod>:
SYSCALL(mknod)
 42b:	b8 11 00 00 00       	mov    $0x11,%eax
 430:	cd 40                	int    $0x40
 432:	c3                   	ret    

00000433 <unlink>:
SYSCALL(unlink)
 433:	b8 12 00 00 00       	mov    $0x12,%eax
 438:	cd 40                	int    $0x40
 43a:	c3                   	ret    

0000043b <fstat>:
SYSCALL(fstat)
 43b:	b8 08 00 00 00       	mov    $0x8,%eax
 440:	cd 40                	int    $0x40
 442:	c3                   	ret    

00000443 <link>:
SYSCALL(link)
 443:	b8 13 00 00 00       	mov    $0x13,%eax
 448:	cd 40                	int    $0x40
 44a:	c3                   	ret    

0000044b <mkdir>:
SYSCALL(mkdir)
 44b:	b8 14 00 00 00       	mov    $0x14,%eax
 450:	cd 40                	int    $0x40
 452:	c3                   	ret    

00000453 <chdir>:
SYSCALL(chdir)
 453:	b8 09 00 00 00       	mov    $0x9,%eax
 458:	cd 40                	int    $0x40
 45a:	c3                   	ret    

0000045b <dup>:
SYSCALL(dup)
 45b:	b8 0a 00 00 00       	mov    $0xa,%eax
 460:	cd 40                	int    $0x40
 462:	c3                   	ret    

00000463 <getpid>:
SYSCALL(getpid)
 463:	b8 0b 00 00 00       	mov    $0xb,%eax
 468:	cd 40                	int    $0x40
 46a:	c3                   	ret    

0000046b <sbrk>:
SYSCALL(sbrk)
 46b:	b8 0c 00 00 00       	mov    $0xc,%eax
 470:	cd 40                	int    $0x40
 472:	c3                   	ret    

00000473 <sleep>:
SYSCALL(sleep)
 473:	b8 0d 00 00 00       	mov    $0xd,%eax
 478:	cd 40                	int    $0x40
 47a:	c3                   	ret    

0000047b <uptime>:
SYSCALL(uptime)
 47b:	b8 0e 00 00 00       	mov    $0xe,%eax
 480:	cd 40                	int    $0x40
 482:	c3                   	ret    

00000483 <memsize>:
SYSCALL(memsize)
 483:	b8 16 00 00 00       	mov    $0x16,%eax
 488:	cd 40                	int    $0x40
 48a:	c3                   	ret    
